target datalayout = "e-m:e-p270:32:32-p271:32:32-p272:64:64-i64:64-i128:128-f80:128-n8:16:32:64-S128"
target triple = "x86_64-pc-linux-gnu"

@_ZN9OutputMgr14hash_func_nameE = dso_local global ptr @.str, align 8
@_ZN9OutputMgr19step_hash_func_nameE = dso_local global ptr @.str.1, align 8
@.str.13 = private unnamed_addr constant [2 x i8] c"}\00", align 1
@.str.14 = private unnamed_addr constant [4 x i8] c"();\00", align 1
@.str.17 = private unnamed_addr constant [6 x i8] c"void \00", align 1
@.str.18 = private unnamed_addr constant [14 x i8] c"(int stmt_id)\00", align 1
@.str.19 = private unnamed_addr constant [2 x i8] c"{\00", align 1
@.str.20 = private unnamed_addr constant [11 x i8] c"int i = 0;\00", align 1
@.str.21 = private unnamed_addr constant [26 x i8] c"printf(\22before stmt(%d): \00", align 1
@.str.22 = private unnamed_addr constant [58 x i8] c"checksum = %X\\n\22, stmt_id, crc32_context ^ 0xFFFFFFFFUL);\00", align 1
@.str.23 = private unnamed_addr constant [31 x i8] c"crc32_context = 0xFFFFFFFFUL; \00", align 1
@.str.24 = private unnamed_addr constant [29 x i8] c"for (i = 0; i < 256; i++) { \00", align 1
@.str.25 = private unnamed_addr constant [18 x i8] c"crc32_tab[i] = 0;\00", align 1
@.str.26 = private unnamed_addr constant [16 x i8] c"crc32_gentab();\00", align 1
@.str.55 = private unnamed_addr constant [5 x i8] c"    \00", align 1

; Function Attrs: mustprogress uwtable
define dso_local void @_ZN9OutputMgr24OutputHashFuncInvocationERSoi(ptr noundef nonnull align 8 dereferenceable(8) %0, i32 noundef %1) #5 align 2 {
  %3 = alloca ptr, align 8
  %4 = alloca i32, align 4
  store ptr %0, ptr %3, align 8
  store i32 %1, ptr %4, align 4
  %5 = load ptr, ptr %3, align 8
  %6 = load i32, ptr %4, align 4
  call void @_ZN9OutputMgr11output_tab_ERSoi(ptr noundef nonnull align 8 dereferenceable(8) %5, i32 noundef %6)
  %7 = load ptr, ptr %3, align 8
  %8 = load ptr, ptr @_ZN9OutputMgr14hash_func_nameE, align 8
  %9 = call noundef nonnull align 8 dereferenceable(8) ptr @_ZStlsISt11char_traitsIcEERSt13basic_ostreamIcT_ES5_PKc(ptr noundef nonnull align 8 dereferenceable(8) %7, ptr noundef %8)
  %10 = call noundef nonnull align 8 dereferenceable(8) ptr @_ZStlsISt11char_traitsIcEERSt13basic_ostreamIcT_ES5_PKc(ptr noundef nonnull align 8 dereferenceable(8) %9, ptr noundef @.str.14)
  %11 = call noundef nonnull align 8 dereferenceable(8) ptr @_ZNSolsEPFRSoS_E(ptr noundef nonnull align 8 dereferenceable(8) %10, ptr noundef @_ZSt4endlIcSt11char_traitsIcEERSt13basic_ostreamIT_T0_ES6_)
  ret void
}

; Function Attrs: mustprogress uwtable
define dso_local void @_ZN9OutputMgr11output_tab_ERSoi(ptr noundef nonnull align 8 dereferenceable(8) %0, i32 noundef %1) #5 align 2 {
  %3 = alloca ptr, align 8
  %4 = alloca i32, align 4
  store ptr %0, ptr %3, align 8
  store i32 %1, ptr %4, align 4
  br label %5

5:                                                ; preds = %9, %2
  %6 = load i32, ptr %4, align 4
  %7 = add nsw i32 %6, -1
  store i32 %7, ptr %4, align 4
  %8 = icmp ne i32 %6, 0
  br i1 %8, label %9, label %12

9:                                                ; preds = %5
  %10 = load ptr, ptr %3, align 8
  %11 = call noundef nonnull align 8 dereferenceable(8) ptr @_ZStlsISt11char_traitsIcEERSt13basic_ostreamIcT_ES5_PKc(ptr noundef nonnull align 8 dereferenceable(8) %10, ptr noundef @.str.55)
  br label %5, !llvm.loop !8

12:                                               ; preds = %5
  ret void
}

; Function Attrs: mustprogress uwtable
define dso_local void @_ZN9OutputMgr21OutputStepHashFuncDefERSo(ptr noundef nonnull align 8 dereferenceable(8) %0) #5 align 2 {
  %2 = alloca ptr, align 8
  %3 = alloca i32, align 4
  store ptr %0, ptr %2, align 8
  %4 = load ptr, ptr %2, align 8
  %5 = call noundef nonnull align 8 dereferenceable(8) ptr @_ZNSolsEPFRSoS_E(ptr noundef nonnull align 8 dereferenceable(8) %4, ptr noundef @_ZSt4endlIcSt11char_traitsIcEERSt13basic_ostreamIT_T0_ES6_)
  %6 = load ptr, ptr %2, align 8
  %7 = call noundef nonnull align 8 dereferenceable(8) ptr @_ZStlsISt11char_traitsIcEERSt13basic_ostreamIcT_ES5_PKc(ptr noundef nonnull align 8 dereferenceable(8) %6, ptr noundef @.str.17)
  %8 = load ptr, ptr @_ZN9OutputMgr19step_hash_func_nameE, align 8
  %9 = call noundef nonnull align 8 dereferenceable(8) ptr @_ZStlsISt11char_traitsIcEERSt13basic_ostreamIcT_ES5_PKc(ptr noundef nonnull align 8 dereferenceable(8) %7, ptr noundef %8)
  %10 = call noundef nonnull align 8 dereferenceable(8) ptr @_ZStlsISt11char_traitsIcEERSt13basic_ostreamIcT_ES5_PKc(ptr noundef nonnull align 8 dereferenceable(8) %9, ptr noundef @.str.18)
  %11 = call noundef nonnull align 8 dereferenceable(8) ptr @_ZNSolsEPFRSoS_E(ptr noundef nonnull align 8 dereferenceable(8) %10, ptr noundef @_ZSt4endlIcSt11char_traitsIcEERSt13basic_ostreamIT_T0_ES6_)
  %12 = load ptr, ptr %2, align 8
  %13 = call noundef nonnull align 8 dereferenceable(8) ptr @_ZStlsISt11char_traitsIcEERSt13basic_ostreamIcT_ES5_PKc(ptr noundef nonnull align 8 dereferenceable(8) %12, ptr noundef @.str.19)
  %14 = call noundef nonnull align 8 dereferenceable(8) ptr @_ZNSolsEPFRSoS_E(ptr noundef nonnull align 8 dereferenceable(8) %13, ptr noundef @_ZSt4endlIcSt11char_traitsIcEERSt13basic_ostreamIT_T0_ES6_)
  store i32 1, ptr %3, align 4
  %15 = load ptr, ptr %2, align 8
  %16 = load i32, ptr %3, align 4
  call void @_ZN9OutputMgr11output_tab_ERSoi(ptr noundef nonnull align 8 dereferenceable(8) %15, i32 noundef %16)
  %17 = load ptr, ptr %2, align 8
  %18 = call noundef nonnull align 8 dereferenceable(8) ptr @_ZStlsISt11char_traitsIcEERSt13basic_ostreamIcT_ES5_PKc(ptr noundef nonnull align 8 dereferenceable(8) %17, ptr noundef @.str.20)
  %19 = call noundef nonnull align 8 dereferenceable(8) ptr @_ZNSolsEPFRSoS_E(ptr noundef nonnull align 8 dereferenceable(8) %18, ptr noundef @_ZSt4endlIcSt11char_traitsIcEERSt13basic_ostreamIT_T0_ES6_)
  %20 = load ptr, ptr %2, align 8
  %21 = load i32, ptr %3, align 4
  call void @_ZN9OutputMgr24OutputHashFuncInvocationERSoi(ptr noundef nonnull align 8 dereferenceable(8) %20, i32 noundef %21)
  %22 = load ptr, ptr %2, align 8
  %23 = load i32, ptr %3, align 4
  call void @_ZN9OutputMgr11output_tab_ERSoi(ptr noundef nonnull align 8 dereferenceable(8) %22, i32 noundef %23)
  %24 = load ptr, ptr %2, align 8
  %25 = call noundef nonnull align 8 dereferenceable(8) ptr @_ZStlsISt11char_traitsIcEERSt13basic_ostreamIcT_ES5_PKc(ptr noundef nonnull align 8 dereferenceable(8) %24, ptr noundef @.str.21)
  %26 = load ptr, ptr %2, align 8
  %27 = call noundef nonnull align 8 dereferenceable(8) ptr @_ZStlsISt11char_traitsIcEERSt13basic_ostreamIcT_ES5_PKc(ptr noundef nonnull align 8 dereferenceable(8) %26, ptr noundef @.str.22)
  %28 = call noundef nonnull align 8 dereferenceable(8) ptr @_ZNSolsEPFRSoS_E(ptr noundef nonnull align 8 dereferenceable(8) %27, ptr noundef @_ZSt4endlIcSt11char_traitsIcEERSt13basic_ostreamIT_T0_ES6_)
  %29 = load ptr, ptr %2, align 8
  %30 = load i32, ptr %3, align 4
  call void @_ZN9OutputMgr11output_tab_ERSoi(ptr noundef nonnull align 8 dereferenceable(8) %29, i32 noundef %30)
  %31 = load ptr, ptr %2, align 8
  %32 = call noundef nonnull align 8 dereferenceable(8) ptr @_ZStlsISt11char_traitsIcEERSt13basic_ostreamIcT_ES5_PKc(ptr noundef nonnull align 8 dereferenceable(8) %31, ptr noundef @.str.23)
  %33 = call noundef nonnull align 8 dereferenceable(8) ptr @_ZNSolsEPFRSoS_E(ptr noundef nonnull align 8 dereferenceable(8) %32, ptr noundef @_ZSt4endlIcSt11char_traitsIcEERSt13basic_ostreamIT_T0_ES6_)
  %34 = load ptr, ptr %2, align 8
  %35 = load i32, ptr %3, align 4
  call void @_ZN9OutputMgr11output_tab_ERSoi(ptr noundef nonnull align 8 dereferenceable(8) %34, i32 noundef %35)
  %36 = load ptr, ptr %2, align 8
  %37 = call noundef nonnull align 8 dereferenceable(8) ptr @_ZStlsISt11char_traitsIcEERSt13basic_ostreamIcT_ES5_PKc(ptr noundef nonnull align 8 dereferenceable(8) %36, ptr noundef @.str.24)
  %38 = call noundef nonnull align 8 dereferenceable(8) ptr @_ZNSolsEPFRSoS_E(ptr noundef nonnull align 8 dereferenceable(8) %37, ptr noundef @_ZSt4endlIcSt11char_traitsIcEERSt13basic_ostreamIT_T0_ES6_)
  %39 = load ptr, ptr %2, align 8
  %40 = load i32, ptr %3, align 4
  %41 = add nsw i32 %40, 1
  call void @_ZN9OutputMgr11output_tab_ERSoi(ptr noundef nonnull align 8 dereferenceable(8) %39, i32 noundef %41)
  %42 = load ptr, ptr %2, align 8
  %43 = call noundef nonnull align 8 dereferenceable(8) ptr @_ZStlsISt11char_traitsIcEERSt13basic_ostreamIcT_ES5_PKc(ptr noundef nonnull align 8 dereferenceable(8) %42, ptr noundef @.str.25)
  %44 = call noundef nonnull align 8 dereferenceable(8) ptr @_ZNSolsEPFRSoS_E(ptr noundef nonnull align 8 dereferenceable(8) %43, ptr noundef @_ZSt4endlIcSt11char_traitsIcEERSt13basic_ostreamIT_T0_ES6_)
  %45 = load ptr, ptr %2, align 8
  %46 = load i32, ptr %3, align 4
  call void @_ZN9OutputMgr11output_tab_ERSoi(ptr noundef nonnull align 8 dereferenceable(8) %45, i32 noundef %46)
  %47 = load ptr, ptr %2, align 8
  %48 = call noundef nonnull align 8 dereferenceable(8) ptr @_ZStlsISt11char_traitsIcEERSt13basic_ostreamIcT_ES5_PKc(ptr noundef nonnull align 8 dereferenceable(8) %47, ptr noundef @.str.13)
  %49 = call noundef nonnull align 8 dereferenceable(8) ptr @_ZNSolsEPFRSoS_E(ptr noundef nonnull align 8 dereferenceable(8) %48, ptr noundef @_ZSt4endlIcSt11char_traitsIcEERSt13basic_ostreamIT_T0_ES6_)
  %50 = load ptr, ptr %2, align 8
  %51 = load i32, ptr %3, align 4
  call void @_ZN9OutputMgr11output_tab_ERSoi(ptr noundef nonnull align 8 dereferenceable(8) %50, i32 noundef %51)
  %52 = load ptr, ptr %2, align 8
  %53 = call noundef nonnull align 8 dereferenceable(8) ptr @_ZStlsISt11char_traitsIcEERSt13basic_ostreamIcT_ES5_PKc(ptr noundef nonnull align 8 dereferenceable(8) %52, ptr noundef @.str.26)
  %54 = call noundef nonnull align 8 dereferenceable(8) ptr @_ZNSolsEPFRSoS_E(ptr noundef nonnull align 8 dereferenceable(8) %53, ptr noundef @_ZSt4endlIcSt11char_traitsIcEERSt13basic_ostreamIT_T0_ES6_)
  %55 = load ptr, ptr %2, align 8
  %56 = call noundef nonnull align 8 dereferenceable(8) ptr @_ZStlsISt11char_traitsIcEERSt13basic_ostreamIcT_ES5_PKc(ptr noundef nonnull align 8 dereferenceable(8) %55, ptr noundef @.str.13)
  %57 = call noundef nonnull align 8 dereferenceable(8) ptr @_ZNSolsEPFRSoS_E(ptr noundef nonnull align 8 dereferenceable(8) %56, ptr noundef @_ZSt4endlIcSt11char_traitsIcEERSt13basic_ostreamIT_T0_ES6_)
  ret void
}